target datalayout = "e-m:e-p270:32:32-p271:32:32-p272:64:64-i64:64-i128:128-f80:128-n8:16:32:64-S128"
target triple = "x86_64-unknown-linux-gnu"

%struct.hdr_histogram = type { i64, i64, i32, i32, i32, i32, i64, i32, i32, i64, i64, i32, double, i32, i64, ptr }

; Function Attrs: nounwind uwtable
define dso_local void @hdr_reset(ptr noundef %h) #0 {
entry:
  %h.addr = alloca ptr, align 8
  store ptr %h, ptr %h.addr, align 8
  %0 = load ptr, ptr %h.addr, align 8
  %total_count = getelementptr inbounds %struct.hdr_histogram, ptr %0, i32 0, i32 14
  store i64 0, ptr %total_count, align 8
  %1 = load ptr, ptr %h.addr, align 8
  %min_value = getelementptr inbounds %struct.hdr_histogram, ptr %1, i32 0, i32 9
  store i64 9223372036854775807, ptr %min_value, align 8
  %2 = load ptr, ptr %h.addr, align 8
  %max_value = getelementptr inbounds %struct.hdr_histogram, ptr %2, i32 0, i32 10
  store i64 0, ptr %max_value, align 8
  %3 = load ptr, ptr %h.addr, align 8
  %counts = getelementptr inbounds %struct.hdr_histogram, ptr %3, i32 0, i32 15
  %4 = load ptr, ptr %counts, align 8
  %5 = load ptr, ptr %h.addr, align 8
  %counts_len = getelementptr inbounds %struct.hdr_histogram, ptr %5, i32 0, i32 13
  %6 = load i32, ptr %counts_len, align 8
  %conv = sext i32 %6 to i64
  %mul = mul i64 8, %conv
  call void @llvm.memset.p0.i64(ptr align 8 %4, i8 0, i64 %mul, i1 false)
  ret void
}