; Function Attrs: mustprogress nofree norecurse nosync nounwind willreturn memory(write, argmem: readwrite, inaccessiblemem: none) uwtable
define dso_local void @hdr_reset(ptr nocapture noundef %h) local_unnamed_addr #8 {
entry:
  %total_count = getelementptr inbounds i8, ptr %h, i64 88
  store i64 0, ptr %total_count, align 8
  %min_value = getelementptr inbounds i8, ptr %h, i64 48
  store i64 9223372036854775807, ptr %min_value, align 8
  %max_value = getelementptr inbounds i8, ptr %h, i64 56
  store i64 0, ptr %max_value, align 8
  %counts = getelementptr inbounds i8, ptr %h, i64 96
  %0 = load ptr, ptr %counts, align 8
  %counts_len = getelementptr inbounds i8, ptr %h, i64 80
  %1 = load i32, ptr %counts_len, align 8
  %conv = sext i32 %1 to i64
  %mul = shl nsw i64 %conv, 3
  tail call void @llvm.memset.p0.i64(ptr align 8 %0, i8 0, i64 %mul, i1 false)
  ret void
}